target datalayout = "e-m:e-p270:32:32-p271:32:32-p272:64:64-i64:64-i128:128-f80:128-n8:16:32:64-S128"
target triple = "x86_64-pc-linux-gnu"

@.str.16 = private unnamed_addr constant [30 x i8] c"cli_utf16toascii: length < 2\0A\00", align 1

; Function Attrs: nounwind uwtable
define ptr @cli_utf16toascii(ptr noundef %0, i32 noundef %1) #0 {
  %3 = alloca ptr, align 8
  %4 = alloca ptr, align 8
  %5 = alloca i32, align 4
  %6 = alloca ptr, align 8
  %7 = alloca i32, align 4
  %8 = alloca i32, align 4
  store ptr %0, ptr %4, align 8
  store i32 %1, ptr %5, align 4
  %9 = load i32, ptr %5, align 4
  %10 = icmp ult i32 %9, 2
  br i1 %10, label %11, label %12

11:                                               ; preds = %2
  call void (ptr, ...) @cli_dbgmsg(ptr noundef @.str.16)
  store ptr null, ptr %3, align 8
  br label %67

12:                                               ; preds = %2
  %13 = load i32, ptr %5, align 4
  %14 = urem i32 %13, 2
  %15 = icmp ne i32 %14, 0
  br i1 %15, label %16, label %19

16:                                               ; preds = %12
  %17 = load i32, ptr %5, align 4
  %18 = add i32 %17, -1
  store i32 %18, ptr %5, align 4
  br label %19

19:                                               ; preds = %16, %12
  %20 = load i32, ptr %5, align 4
  %21 = udiv i32 %20, 2
  %22 = add i32 %21, 1
  %23 = zext i32 %22 to i64
  %24 = call ptr @cli_max_calloc(i64 noundef %23, i64 noundef 1)
  store ptr %24, ptr %6, align 8
  %25 = icmp ne ptr %24, null
  br i1 %25, label %27, label %26

26:                                               ; preds = %19
  store ptr null, ptr %3, align 8
  br label %67

27:                                               ; preds = %19
  store i32 0, ptr %7, align 4
  store i32 0, ptr %8, align 4
  br label %28

28:                                               ; preds = %60, %27
  %29 = load i32, ptr %7, align 4
  %30 = load i32, ptr %5, align 4
  %31 = icmp ult i32 %29, %30
  br i1 %31, label %32, label %65

32:                                               ; preds = %28
  %33 = load ptr, ptr %4, align 8
  %34 = load i32, ptr %7, align 4
  %35 = add i32 %34, 1
  %36 = zext i32 %35 to i64
  %37 = getelementptr inbounds i8, ptr %33, i64 %36
  %38 = load i8, ptr %37, align 1
  %39 = zext i8 %38 to i32
  %40 = shl i32 %39, 4
  %41 = trunc i32 %40 to i8
  %42 = load ptr, ptr %6, align 8
  %43 = load i32, ptr %8, align 4
  %44 = zext i32 %43 to i64
  %45 = getelementptr inbounds i8, ptr %42, i64 %44
  store i8 %41, ptr %45, align 1
  %46 = load ptr, ptr %4, align 8
  %47 = load i32, ptr %7, align 4
  %48 = zext i32 %47 to i64
  %49 = getelementptr inbounds i8, ptr %46, i64 %48
  %50 = load i8, ptr %49, align 1
  %51 = sext i8 %50 to i32
  %52 = load ptr, ptr %6, align 8
  %53 = load i32, ptr %8, align 4
  %54 = zext i32 %53 to i64
  %55 = getelementptr inbounds i8, ptr %52, i64 %54
  %56 = load i8, ptr %55, align 1
  %57 = sext i8 %56 to i32
  %58 = add nsw i32 %57, %51
  %59 = trunc i32 %58 to i8
  store i8 %59, ptr %55, align 1
  br label %60

60:                                               ; preds = %32
  %61 = load i32, ptr %7, align 4
  %62 = add i32 %61, 2
  store i32 %62, ptr %7, align 4
  %63 = load i32, ptr %8, align 4
  %64 = add i32 %63, 1
  store i32 %64, ptr %8, align 4
  br label %28

65:                                               ; preds = %28
  %66 = load ptr, ptr %6, align 8
  store ptr %66, ptr %3, align 8
  br label %67

67:                                               ; preds = %65, %26, %11
  %68 = load ptr, ptr %3, align 8
  ret ptr %68
}