; Function Attrs: nounwind uwtable
define ptr @cli_utf16toascii(ptr nocapture noundef readonly %0, i32 noundef %1) local_unnamed_addr #0 {
  %3 = icmp ult i32 %1, 2
  br i1 %3, label %4, label %5

4:                                                ; preds = %2
  tail call void (ptr, ...) @cli_dbgmsg(ptr noundef nonnull @.str.16) #16
  br label %.loopexit

5:                                                ; preds = %2
  %spec.select = and i32 %1, -2
  %6 = lshr i32 %1, 1
  %7 = add nuw i32 %6, 1
  %8 = zext i32 %7 to i64
  %9 = tail call ptr @cli_max_calloc(i64 noundef %8, i64 noundef 1) #16
  %.not22 = icmp eq ptr %9, null
  br i1 %.not22, label %.loopexit, label %.preheader

.preheader:                                       ; preds = %5
  %.not = icmp eq i32 %spec.select, 0
  br i1 %.not, label %.loopexit, label %.lr.ph.preheader

.lr.ph.preheader:                                 ; preds = %.preheader
  %10 = add i32 %spec.select, -1
  %11 = lshr i32 %10, 1
  %12 = add nuw nsw i32 %11, 1
  %wide.trip.count = zext nneg i32 %12 to i64
  br label %.lr.ph

.lr.ph:                                           ; preds = %.lr.ph.preheader, %.lr.ph
  %indvars.iv25 = phi i64 [ 0, %.lr.ph.preheader ], [ %indvars.iv.next26, %.lr.ph ]
  %indvars.iv = phi i64 [ 0, %.lr.ph.preheader ], [ %indvars.iv.next, %.lr.ph ]
  %13 = or disjoint i64 %indvars.iv25, 1
  %14 = getelementptr inbounds i8, ptr %0, i64 %13
  %15 = load i8, ptr %14, align 1
  %16 = shl i8 %15, 4
  %17 = getelementptr inbounds i8, ptr %9, i64 %indvars.iv
  store i8 %16, ptr %17, align 1
  %18 = getelementptr inbounds i8, ptr %0, i64 %indvars.iv25
  %19 = load i8, ptr %18, align 1
  %20 = add i8 %19, %16
  store i8 %20, ptr %17, align 1
  %indvars.iv.next26 = add nuw nsw i64 %indvars.iv25, 2
  %indvars.iv.next = add nuw nsw i64 %indvars.iv, 1
  %exitcond.not = icmp eq i64 %indvars.iv.next, %wide.trip.count
  br i1 %exitcond.not, label %.loopexit, label %.lr.ph

.loopexit:                                        ; preds = %.lr.ph, %.preheader, %5, %4
  %.018 = phi ptr [ null, %4 ], [ null, %5 ], [ %9, %.preheader ], [ %9, %.lr.ph ]
  ret ptr %.018
}